target datalayout = "e-m:e-p270:32:32-p271:32:32-p272:64:64-i64:64-i128:128-f80:128-n8:16:32:64-S128"
target triple = "x86_64-unknown-linux-gnu"

%struct.TCGOp = type { i32, i32, %union.anon, [2 x i32], [0 x i64] }
%union.anon = type { %struct.QTailQLink }
%struct.QTailQLink = type { ptr, ptr }

@tcg_ctx = external thread_local global ptr, align 8

; Function Attrs: nounwind sspstrong uwtable
define internal ptr @tcgv_i32_temp(ptr noundef %v) #0 {
entry:
  %v.addr = alloca ptr, align 8
  store ptr %v, ptr %v.addr, align 8
  %0 = call align 8 ptr @llvm.threadlocal.address.p0(ptr align 8 @tcg_ctx)
  %1 = load ptr, ptr %0, align 8
  %2 = load ptr, ptr %v.addr, align 8
  %3 = ptrtoint ptr %2 to i64
  %add.ptr = getelementptr i8, ptr %1, i64 %3
  ret ptr %add.ptr
}

; Function Attrs: nounwind sspstrong uwtable
define internal ptr @tcg_swap_vecop_list(ptr noundef %n) #0 {
entry:
  %n.addr = alloca ptr, align 8
  store ptr %n, ptr %n.addr, align 8
  ret ptr null
}

; Function Attrs: nounwind sspstrong uwtable
define dso_local void @vec_gen_3(i32 noundef %opc, i32 noundef %type, i32 noundef %vece, i64 noundef %r, i64 noundef %a, i64 noundef %b) #0 {
entry:
  %opc.addr = alloca i32, align 4
  %type.addr = alloca i32, align 4
  %vece.addr = alloca i32, align 4
  %r.addr = alloca i64, align 8
  %a.addr = alloca i64, align 8
  %b.addr = alloca i64, align 8
  %op = alloca ptr, align 8
  store i32 %opc, ptr %opc.addr, align 4
  store i32 %type, ptr %type.addr, align 4
  store i32 %vece, ptr %vece.addr, align 4
  store i64 %r, ptr %r.addr, align 8
  store i64 %a, ptr %a.addr, align 8
  store i64 %b, ptr %b.addr, align 8
  %0 = load i32, ptr %opc.addr, align 4
  %call = call ptr @tcg_emit_op(i32 noundef %0, i32 noundef 3)
  store ptr %call, ptr %op, align 8
  %1 = load i32, ptr %type.addr, align 4
  %sub = sub i32 %1, 3
  %2 = load ptr, ptr %op, align 8
  %bf.load = load i32, ptr %2, align 8
  %bf.value = and i32 %sub, 255
  %bf.shl = shl i32 %bf.value, 16
  %bf.clear = and i32 %bf.load, -16711681
  %bf.set = or i32 %bf.clear, %bf.shl
  store i32 %bf.set, ptr %2, align 8
  %3 = load i32, ptr %vece.addr, align 4
  %4 = load ptr, ptr %op, align 8
  %bf.load1 = load i32, ptr %4, align 8
  %bf.value2 = and i32 %3, 255
  %bf.shl3 = shl i32 %bf.value2, 24
  %bf.clear4 = and i32 %bf.load1, 16777215
  %bf.set5 = or i32 %bf.clear4, %bf.shl3
  store i32 %bf.set5, ptr %4, align 8
  %5 = load i64, ptr %r.addr, align 8
  %6 = load ptr, ptr %op, align 8
  %args = getelementptr inbounds %struct.TCGOp, ptr %6, i32 0, i32 4
  %arrayidx = getelementptr [0 x i64], ptr %args, i64 0, i64 0
  store i64 %5, ptr %arrayidx, align 8
  %7 = load i64, ptr %a.addr, align 8
  %8 = load ptr, ptr %op, align 8
  %args6 = getelementptr inbounds %struct.TCGOp, ptr %8, i32 0, i32 4
  %arrayidx7 = getelementptr [0 x i64], ptr %args6, i64 0, i64 1
  store i64 %7, ptr %arrayidx7, align 8
  %9 = load i64, ptr %b.addr, align 8
  %10 = load ptr, ptr %op, align 8
  %args8 = getelementptr inbounds %struct.TCGOp, ptr %10, i32 0, i32 4
  %arrayidx9 = getelementptr [0 x i64], ptr %args8, i64 0, i64 2
  store i64 %9, ptr %arrayidx9, align 8
  ret void
}

; Function Attrs: nounwind sspstrong uwtable
define internal void @tcg_assert_listed_vecop(i32 noundef %op) #0 {
entry:
  %op.addr = alloca i32, align 4
  store i32 %op, ptr %op.addr, align 4
  ret void
}

; Function Attrs: nounwind sspstrong uwtable
define internal i64 @temp_arg(ptr noundef %ts) #0 {
entry:
  %ts.addr = alloca ptr, align 8
  store ptr %ts, ptr %ts.addr, align 8
  %0 = load ptr, ptr %ts.addr, align 8
  %1 = ptrtoint ptr %0 to i64
  ret i64 %1
}

; Function Attrs: nounwind sspstrong uwtable
define internal ptr @tcgv_vec_temp(ptr noundef %v) #0 {
entry:
  %v.addr = alloca ptr, align 8
  store ptr %v, ptr %v.addr, align 8
  %0 = load ptr, ptr %v.addr, align 8
  %call = call ptr @tcgv_i32_temp(ptr noundef %0)
  ret ptr %call
}

; Function Attrs: nounwind sspstrong uwtable
define internal zeroext i1 @do_op3(i32 noundef %vece, ptr noundef %r, ptr noundef %a, ptr noundef %b, i32 noundef %opc) #0 {
entry:
  %retval = alloca i1, align 1
  %vece.addr = alloca i32, align 4
  %r.addr = alloca ptr, align 8
  %a.addr = alloca ptr, align 8
  %b.addr = alloca ptr, align 8
  %opc.addr = alloca i32, align 4
  %rt = alloca ptr, align 8
  %at = alloca ptr, align 8
  %bt = alloca ptr, align 8
  %ri = alloca i64, align 8
  %ai = alloca i64, align 8
  %bi = alloca i64, align 8
  %type = alloca i32, align 4
  %can = alloca i32, align 4
  %hold_list = alloca ptr, align 8
  store i32 %vece, ptr %vece.addr, align 4
  store ptr %r, ptr %r.addr, align 8
  store ptr %a, ptr %a.addr, align 8
  store ptr %b, ptr %b.addr, align 8
  store i32 %opc, ptr %opc.addr, align 4
  %0 = load ptr, ptr %r.addr, align 8
  %call = call ptr @tcgv_vec_temp(ptr noundef %0)
  store ptr %call, ptr %rt, align 8
  %1 = load ptr, ptr %a.addr, align 8
  %call1 = call ptr @tcgv_vec_temp(ptr noundef %1)
  store ptr %call1, ptr %at, align 8
  %2 = load ptr, ptr %b.addr, align 8
  %call2 = call ptr @tcgv_vec_temp(ptr noundef %2)
  store ptr %call2, ptr %bt, align 8
  %3 = load ptr, ptr %rt, align 8
  %call3 = call i64 @temp_arg(ptr noundef %3)
  store i64 %call3, ptr %ri, align 8
  %4 = load ptr, ptr %at, align 8
  %call4 = call i64 @temp_arg(ptr noundef %4)
  store i64 %call4, ptr %ai, align 8
  %5 = load ptr, ptr %bt, align 8
  %call5 = call i64 @temp_arg(ptr noundef %5)
  store i64 %call5, ptr %bi, align 8
  %6 = load ptr, ptr %rt, align 8
  %bf.load = load i64, ptr %6, align 8
  %bf.lshr = lshr i64 %bf.load, 16
  %bf.clear = and i64 %bf.lshr, 255
  %bf.cast = trunc i64 %bf.clear to i32
  store i32 %bf.cast, ptr %type, align 4
  br label %do.body

do.body:                                          ; preds = %entry
  %7 = load ptr, ptr %at, align 8
  %bf.load6 = load i64, ptr %7, align 8
  %bf.lshr7 = lshr i64 %bf.load6, 16
  %bf.clear8 = and i64 %bf.lshr7, 255
  %bf.cast9 = trunc i64 %bf.clear8 to i32
  %8 = load i32, ptr %type, align 4
  %cmp = icmp uge i32 %bf.cast9, %8
  br i1 %cmp, label %if.end, label %if.then

if.then:                                          ; preds = %do.body
  unreachable

if.end:                                           ; preds = %do.body
  br label %do.end

do.end:                                           ; preds = %if.end
  br label %do.body10

do.body10:                                        ; preds = %do.end
  %9 = load ptr, ptr %bt, align 8
  %bf.load11 = load i64, ptr %9, align 8
  %bf.lshr12 = lshr i64 %bf.load11, 16
  %bf.clear13 = and i64 %bf.lshr12, 255
  %bf.cast14 = trunc i64 %bf.clear13 to i32
  %10 = load i32, ptr %type, align 4
  %cmp15 = icmp uge i32 %bf.cast14, %10
  br i1 %cmp15, label %if.end17, label %if.then16

if.then16:                                        ; preds = %do.body10
  unreachable

if.end17:                                         ; preds = %do.body10
  br label %do.end18

do.end18:                                         ; preds = %if.end17
  %11 = load i32, ptr %opc.addr, align 4
  call void @tcg_assert_listed_vecop(i32 noundef %11)
  %12 = load i32, ptr %opc.addr, align 4
  %13 = load i32, ptr %type, align 4
  %14 = load i32, ptr %vece.addr, align 4
  %call19 = call i32 @tcg_can_emit_vec_op(i32 noundef %12, i32 noundef %13, i32 noundef %14)
  store i32 %call19, ptr %can, align 4
  %15 = load i32, ptr %can, align 4
  %cmp20 = icmp sgt i32 %15, 0
  br i1 %cmp20, label %if.then21, label %if.else

if.then21:                                        ; preds = %do.end18
  %16 = load i32, ptr %opc.addr, align 4
  %17 = load i32, ptr %type, align 4
  %18 = load i32, ptr %vece.addr, align 4
  %19 = load i64, ptr %ri, align 8
  %20 = load i64, ptr %ai, align 8
  %21 = load i64, ptr %bi, align 8
  call void @vec_gen_3(i32 noundef %16, i32 noundef %17, i32 noundef %18, i64 noundef %19, i64 noundef %20, i64 noundef %21)
  br label %if.end28

if.else:                                          ; preds = %do.end18
  %22 = load i32, ptr %can, align 4
  %cmp22 = icmp slt i32 %22, 0
  br i1 %cmp22, label %if.then23, label %if.else26

if.then23:                                        ; preds = %if.else
  %call24 = call ptr @tcg_swap_vecop_list(ptr noundef null)
  store ptr %call24, ptr %hold_list, align 8
  %23 = load i32, ptr %opc.addr, align 4
  %24 = load i32, ptr %type, align 4
  %25 = load i32, ptr %vece.addr, align 4
  %26 = load i64, ptr %ri, align 8
  %27 = load i64, ptr %ai, align 8
  %28 = load i64, ptr %bi, align 8
  call void (i32, i32, i32, i64, ...) @tcg_expand_vec_op(i32 noundef %23, i32 noundef %24, i32 noundef %25, i64 noundef %26, i64 noundef %27, i64 noundef %28)
  %29 = load ptr, ptr %hold_list, align 8
  %call25 = call ptr @tcg_swap_vecop_list(ptr noundef %29)
  br label %if.end27

if.else26:                                        ; preds = %if.else
  store i1 false, ptr %retval, align 1
  br label %return

if.end27:                                         ; preds = %if.then23
  br label %if.end28

if.end28:                                         ; preds = %if.end27, %if.then21
  store i1 true, ptr %retval, align 1
  br label %return

return:                                           ; preds = %if.end28, %if.else26
  %30 = load i1, ptr %retval, align 1
  ret i1 %30
}

; Function Attrs: nounwind sspstrong uwtable
define internal void @do_op3_nofail(i32 noundef %vece, ptr noundef %r, ptr noundef %a, ptr noundef %b, i32 noundef %opc) #0 {
entry:
  %vece.addr = alloca i32, align 4
  %r.addr = alloca ptr, align 8
  %a.addr = alloca ptr, align 8
  %b.addr = alloca ptr, align 8
  %opc.addr = alloca i32, align 4
  %ok = alloca i8, align 1
  store i32 %vece, ptr %vece.addr, align 4
  store ptr %r, ptr %r.addr, align 8
  store ptr %a, ptr %a.addr, align 8
  store ptr %b, ptr %b.addr, align 8
  store i32 %opc, ptr %opc.addr, align 4
  %0 = load i32, ptr %vece.addr, align 4
  %1 = load ptr, ptr %r.addr, align 8
  %2 = load ptr, ptr %a.addr, align 8
  %3 = load ptr, ptr %b.addr, align 8
  %4 = load i32, ptr %opc.addr, align 4
  %call = call zeroext i1 @do_op3(i32 noundef %0, ptr noundef %1, ptr noundef %2, ptr noundef %3, i32 noundef %4)
  %frombool = zext i1 %call to i8
  store i8 %frombool, ptr %ok, align 1
  br label %do.body

do.body:                                          ; preds = %entry
  %5 = load i8, ptr %ok, align 1
  %tobool = trunc i8 %5 to i1
  br i1 %tobool, label %if.end, label %if.then

if.then:                                          ; preds = %do.body
  unreachable

if.end:                                           ; preds = %do.body
  br label %do.end

do.end:                                           ; preds = %if.end
  ret void
}

; Function Attrs: nounwind sspstrong uwtable
define dso_local void @tcg_gen_add_vec(i32 noundef %vece, ptr noundef %r, ptr noundef %a, ptr noundef %b) #0 {
entry:
  %vece.addr = alloca i32, align 4
  %r.addr = alloca ptr, align 8
  %a.addr = alloca ptr, align 8
  %b.addr = alloca ptr, align 8
  store i32 %vece, ptr %vece.addr, align 4
  store ptr %r, ptr %r.addr, align 8
  store ptr %a, ptr %a.addr, align 8
  store ptr %b, ptr %b.addr, align 8
  %0 = load i32, ptr %vece.addr, align 4
  %1 = load ptr, ptr %r.addr, align 8
  %2 = load ptr, ptr %a.addr, align 8
  %3 = load ptr, ptr %b.addr, align 8
  call void @do_op3_nofail(i32 noundef %0, ptr noundef %1, ptr noundef %2, ptr noundef %3, i32 noundef 155)
  ret void
}